; Function Attrs: mustprogress nounwind uwtable
define internal void @"_ZN4absl12lts_2024072222internal_any_invocable22LocalManagerNontrivialIZZL19maybe_initiate_pingP21grpc_chttp2_transportENK3$_0clEN9grpc_core20Chttp2PingRatePolicy7TooSoonEEUlvE_EEvNS1_14FunctionToCallEPNS1_15TypeErasedStateESC_"(i1 noundef zeroext %0, ptr noundef captures(none) %1, ptr noundef writeonly captures(none) %2) #16 personality ptr @__gxx_personality_v0 {
  br i1 %0, label %5, label %.thread

.thread:                                          ; preds = %3
  store ptr null, ptr %2, align 8, !tbaa !46
  %4 = load ptr, ptr %1, align 8, !tbaa !46
  store ptr %4, ptr %2, align 8, !tbaa !46
  store ptr null, ptr %1, align 8, !tbaa !46
  br label %"_ZZZL19maybe_initiate_pingP21grpc_chttp2_transportENK3$_0clEN9grpc_core20Chttp2PingRatePolicy7TooSoonEENUlvE_D2Ev.exit"

5:                                                ; preds = %3
  %.val.pr = load ptr, ptr %1, align 8, !tbaa !46
  %.not.i.i = icmp eq ptr %.val.pr, null
  br i1 %.not.i.i, label %"_ZZZL19maybe_initiate_pingP21grpc_chttp2_transportENK3$_0clEN9grpc_core20Chttp2PingRatePolicy7TooSoonEENUlvE_D2Ev.exit", label %6

6:                                                ; preds = %5
  %7 = getelementptr inbounds nuw i8, ptr %.val.pr, i64 8
  %8 = atomicrmw sub ptr %7, i64 1 acq_rel, align 8
  %9 = icmp eq i64 %8, 1
  br i1 %9, label %10, label %"_ZZZL19maybe_initiate_pingP21grpc_chttp2_transportENK3$_0clEN9grpc_core20Chttp2PingRatePolicy7TooSoonEENUlvE_D2Ev.exit", !prof !65

10:                                               ; preds = %6
  %11 = load ptr, ptr %.val.pr, align 8, !tbaa !51
  %12 = getelementptr inbounds nuw i8, ptr %11, i64 16
  %13 = load ptr, ptr %12, align 8
  tail call void %13(ptr noundef nonnull align 8 dereferenceable(16) %.val.pr) #29
  br label %"_ZZZL19maybe_initiate_pingP21grpc_chttp2_transportENK3$_0clEN9grpc_core20Chttp2PingRatePolicy7TooSoonEENUlvE_D2Ev.exit"

"_ZZZL19maybe_initiate_pingP21grpc_chttp2_transportENK3$_0clEN9grpc_core20Chttp2PingRatePolicy7TooSoonEENUlvE_D2Ev.exit": ; preds = %.thread, %5, %6, %10
  ret void
}